target datalayout = "e-m:e-p270:32:32-p271:32:32-p272:64:64-i64:64-i128:128-f80:128-n8:16:32:64-S128"
target triple = "x86_64-pc-linux-gnu"

%struct._zval_struct = type { %union._zend_value, %union.anon, %union.anon.2 }
%union._zend_value = type { i64 }
%union.anon = type { i32 }
%union.anon.2 = type { i32 }
%struct._zend_refcounted_h = type { i32, %union.anon.3 }
%union.anon.3 = type { i32 }
%struct._php_random_status_state_mt19937 = type { i32, i32, [624 x i32] }
%struct._zend_string = type { %struct._zend_refcounted_h, i64, i64, [1 x i8] }

; Function Attrs: alwaysinline nounwind uwtable
define internal i32 @zval_gc_flags(i32 noundef %0) #7 {
  %2 = alloca i32, align 4
  store i32 %0, ptr %2, align 4, !tbaa !9
  %3 = load i32, ptr %2, align 4, !tbaa !9
  %4 = lshr i32 %3, 0
  %5 = and i32 %4, 1008
  ret i32 %5
}

; Function Attrs: nounwind uwtable
define internal zeroext i1 @serialize(ptr noundef %0, ptr noundef %1) #2 {
  %3 = alloca ptr, align 8
  %4 = alloca ptr, align 8
  %5 = alloca ptr, align 8
  %6 = alloca %struct._zval_struct, align 8
  %7 = alloca i32, align 4
  %8 = alloca ptr, align 8
  %9 = alloca ptr, align 8
  %10 = alloca ptr, align 8
  %11 = alloca ptr, align 8
  store ptr %0, ptr %3, align 8, !tbaa !16
  store ptr %1, ptr %4, align 8, !tbaa !26
  call void @llvm.lifetime.start.p0(i64 8, ptr %5) #10
  %12 = load ptr, ptr %3, align 8, !tbaa !16
  store ptr %12, ptr %5, align 8, !tbaa !4
  call void @llvm.lifetime.start.p0(i64 16, ptr %6) #10
  call void @llvm.lifetime.start.p0(i64 4, ptr %7) #10
  store i32 0, ptr %7, align 4, !tbaa !9
  br label %13

13:                                               ; preds = %42, %2
  %14 = load i32, ptr %7, align 4, !tbaa !9
  %15 = icmp ult i32 %14, 624
  br i1 %15, label %17, label %16

16:                                               ; preds = %13
  call void @llvm.lifetime.end.p0(i64 4, ptr %7) #10
  br label %45

17:                                               ; preds = %13
  br label %18

18:                                               ; preds = %17
  call void @llvm.lifetime.start.p0(i64 8, ptr %8) #10
  store ptr %6, ptr %8, align 8, !tbaa !28
  call void @llvm.lifetime.start.p0(i64 8, ptr %9) #10
  %19 = load ptr, ptr %5, align 8, !tbaa !4
  %20 = getelementptr inbounds nuw %struct._php_random_status_state_mt19937, ptr %19, i32 0, i32 2
  %21 = load i32, ptr %7, align 4, !tbaa !9
  %22 = zext i32 %21 to i64
  %23 = getelementptr inbounds nuw [624 x i32], ptr %20, i64 0, i64 %22
  %24 = call ptr @php_random_bin2hex_le(ptr noundef %23, i64 noundef 4)
  store ptr %24, ptr %9, align 8, !tbaa !30
  %25 = load ptr, ptr %9, align 8, !tbaa !30
  %26 = load ptr, ptr %8, align 8, !tbaa !28
  %27 = getelementptr inbounds nuw %struct._zval_struct, ptr %26, i32 0, i32 0
  store ptr %25, ptr %27, align 8, !tbaa !32
  %28 = load ptr, ptr %9, align 8, !tbaa !30
  %29 = getelementptr inbounds nuw %struct._zend_string, ptr %28, i32 0, i32 0
  %30 = getelementptr inbounds nuw %struct._zend_refcounted_h, ptr %29, i32 0, i32 1
  %31 = load i32, ptr %30, align 4, !tbaa !32
  %32 = call i32 @zval_gc_flags(i32 noundef %31)
  %33 = and i32 %32, 64
  %34 = icmp ne i32 %33, 0
  %35 = select i1 %34, i32 6, i32 262
  %36 = load ptr, ptr %8, align 8, !tbaa !28
  %37 = getelementptr inbounds nuw %struct._zval_struct, ptr %36, i32 0, i32 1
  store i32 %35, ptr %37, align 8, !tbaa !32
  call void @llvm.lifetime.end.p0(i64 8, ptr %9) #10
  call void @llvm.lifetime.end.p0(i64 8, ptr %8) #10
  br label %38

38:                                               ; preds = %18
  br label %39

39:                                               ; preds = %38
  %40 = load ptr, ptr %4, align 8, !tbaa !26
  %41 = call ptr @zend_hash_next_index_insert(ptr noundef %40, ptr noundef %6)
  br label %42

42:                                               ; preds = %39
  %43 = load i32, ptr %7, align 4, !tbaa !9
  %44 = add i32 %43, 1
  store i32 %44, ptr %7, align 4, !tbaa !9
  br label %13

45:                                               ; preds = %16
  br label %46

46:                                               ; preds = %45
  call void @llvm.lifetime.start.p0(i64 8, ptr %10) #10
  store ptr %6, ptr %10, align 8, !tbaa !28
  %47 = load ptr, ptr %5, align 8, !tbaa !4
  %48 = getelementptr inbounds nuw %struct._php_random_status_state_mt19937, ptr %47, i32 0, i32 0
  %49 = load i32, ptr %48, align 4, !tbaa !11
  %50 = zext i32 %49 to i64
  %51 = load ptr, ptr %10, align 8, !tbaa !28
  %52 = getelementptr inbounds nuw %struct._zval_struct, ptr %51, i32 0, i32 0
  store i64 %50, ptr %52, align 8, !tbaa !32
  %53 = load ptr, ptr %10, align 8, !tbaa !28
  %54 = getelementptr inbounds nuw %struct._zval_struct, ptr %53, i32 0, i32 1
  store i32 4, ptr %54, align 8, !tbaa !32
  call void @llvm.lifetime.end.p0(i64 8, ptr %10) #10
  br label %55

55:                                               ; preds = %46
  br label %56

56:                                               ; preds = %55
  %57 = load ptr, ptr %4, align 8, !tbaa !26
  %58 = call ptr @zend_hash_next_index_insert(ptr noundef %57, ptr noundef %6)
  br label %59

59:                                               ; preds = %56
  call void @llvm.lifetime.start.p0(i64 8, ptr %11) #10
  store ptr %6, ptr %11, align 8, !tbaa !28
  %60 = load ptr, ptr %5, align 8, !tbaa !4
  %61 = getelementptr inbounds nuw %struct._php_random_status_state_mt19937, ptr %60, i32 0, i32 1
  %62 = load i32, ptr %61, align 4, !tbaa !15
  %63 = zext i32 %62 to i64
  %64 = load ptr, ptr %11, align 8, !tbaa !28
  %65 = getelementptr inbounds nuw %struct._zval_struct, ptr %64, i32 0, i32 0
  store i64 %63, ptr %65, align 8, !tbaa !32
  %66 = load ptr, ptr %11, align 8, !tbaa !28
  %67 = getelementptr inbounds nuw %struct._zval_struct, ptr %66, i32 0, i32 1
  store i32 4, ptr %67, align 8, !tbaa !32
  call void @llvm.lifetime.end.p0(i64 8, ptr %11) #10
  br label %68

68:                                               ; preds = %59
  br label %69

69:                                               ; preds = %68
  %70 = load ptr, ptr %4, align 8, !tbaa !26
  %71 = call ptr @zend_hash_next_index_insert(ptr noundef %70, ptr noundef %6)
  call void @llvm.lifetime.end.p0(i64 16, ptr %6) #10
  call void @llvm.lifetime.end.p0(i64 8, ptr %5) #10
  ret i1 true
}