; Function Attrs: nounwind uwtable
define internal noundef zeroext i1 @serialize(ptr noundef %0, ptr noundef %1) #3 {
  %3 = alloca %struct._zval_struct, align 8
  call void @llvm.lifetime.start.p0(i64 16, ptr nonnull %3) #7
  %4 = getelementptr inbounds nuw i8, ptr %0, i64 8
  %5 = getelementptr inbounds nuw i8, ptr %3, i64 8
  br label %14

6:                                                ; preds = %14
  %7 = load i32, ptr %0, align 4, !tbaa !8
  %8 = zext i32 %7 to i64
  store i64 %8, ptr %3, align 8, !tbaa !11
  store i32 4, ptr %5, align 8, !tbaa !11
  %9 = call ptr @zend_hash_next_index_insert(ptr noundef %1, ptr noundef nonnull %3) #7
  %10 = getelementptr inbounds nuw i8, ptr %0, i64 4
  %11 = load i32, ptr %10, align 4, !tbaa !10
  %12 = zext i32 %11 to i64
  store i64 %12, ptr %3, align 8, !tbaa !11
  store i32 4, ptr %5, align 8, !tbaa !11
  %13 = call ptr @zend_hash_next_index_insert(ptr noundef %1, ptr noundef nonnull %3) #7
  call void @llvm.lifetime.end.p0(i64 16, ptr nonnull %3) #7
  ret i1 true

14:                                               ; preds = %2, %14
  %indvars.iv = phi i64 [ 0, %2 ], [ %indvars.iv.next, %14 ]
  %15 = getelementptr inbounds nuw [624 x i32], ptr %4, i64 0, i64 %indvars.iv
  %16 = call ptr @php_random_bin2hex_le(ptr noundef nonnull %15, i64 noundef 4) #7
  store ptr %16, ptr %3, align 8, !tbaa !11
  %17 = getelementptr inbounds nuw i8, ptr %16, i64 4
  %18 = load i32, ptr %17, align 4, !tbaa !11
  %19 = and i32 %18, 64
  %.not = icmp eq i32 %19, 0
  %20 = select i1 %.not, i32 262, i32 6
  store i32 %20, ptr %5, align 8, !tbaa !11
  %21 = call ptr @zend_hash_next_index_insert(ptr noundef %1, ptr noundef nonnull %3) #7
  %indvars.iv.next = add nuw nsw i64 %indvars.iv, 1
  %exitcond.not = icmp eq i64 %indvars.iv.next, 624
  br i1 %exitcond.not, label %6, label %14
}